; Function Attrs: mustprogress nounwind uwtable
define internal fastcc void @_ZN4absl12lts_2024072217internal_statusor12StatusOrDataISt10unique_ptrIN9grpc_core12_GLOBAL__N_122ServerCallTracerFilterESt14default_deleteIS6_EEED2Ev(ptr noundef nonnull align 8 captures(none) dereferenceable(16) %0) unnamed_addr #16 align 2 personality ptr @__gxx_personality_v0 {
  %.val = load i64, ptr %0, align 8, !tbaa !36
  %2 = icmp eq i64 %.val, 1
  br i1 %2, label %_ZN4absl12lts_202407226StatusD2Ev.exit, label %8

_ZN4absl12lts_202407226StatusD2Ev.exit:           ; preds = %1
  %3 = getelementptr inbounds nuw i8, ptr %0, i64 8
  %4 = load ptr, ptr %3, align 8, !tbaa !78
  %.not.i = icmp eq ptr %4, null
  br i1 %.not.i, label %_ZNSt10unique_ptrIN9grpc_core12_GLOBAL__N_122ServerCallTracerFilterESt14default_deleteIS2_EED2Ev.exit, label %_ZNKSt14default_deleteIN9grpc_core12_GLOBAL__N_122ServerCallTracerFilterEEclEPS2_.exit.i

_ZNKSt14default_deleteIN9grpc_core12_GLOBAL__N_122ServerCallTracerFilterEEclEPS2_.exit.i: ; preds = %_ZN4absl12lts_202407226StatusD2Ev.exit
  %5 = load ptr, ptr %4, align 8, !tbaa !19
  %6 = getelementptr inbounds nuw i8, ptr %5, i64 40
  %7 = load ptr, ptr %6, align 8
  tail call void %7(ptr noundef nonnull align 8 dereferenceable(8) %4) #31
  br label %_ZNSt10unique_ptrIN9grpc_core12_GLOBAL__N_122ServerCallTracerFilterESt14default_deleteIS2_EED2Ev.exit

_ZNSt10unique_ptrIN9grpc_core12_GLOBAL__N_122ServerCallTracerFilterESt14default_deleteIS2_EED2Ev.exit: ; preds = %_ZN4absl12lts_202407226StatusD2Ev.exit, %_ZNKSt14default_deleteIN9grpc_core12_GLOBAL__N_122ServerCallTracerFilterEEclEPS2_.exit.i
  store ptr null, ptr %3, align 8, !tbaa !78
  br label %_ZN4absl12lts_202407226StatusD2Ev.exit2

8:                                                ; preds = %1
  %9 = and i64 %.val, 1
  %.not.i.i1 = icmp eq i64 %9, 0
  br i1 %.not.i.i1, label %10, label %_ZN4absl12lts_202407226StatusD2Ev.exit2

10:                                               ; preds = %8
  %11 = inttoptr i64 %.val to ptr
  invoke void @_ZNK4absl12lts_2024072215status_internal9StatusRep5UnrefEv(ptr noundef nonnull align 8 dereferenceable(48) %11)
          to label %_ZN4absl12lts_202407226StatusD2Ev.exit2 unwind label %12

12:                                               ; preds = %10
  %13 = landingpad { ptr, i32 }
          catch ptr null
  %14 = extractvalue { ptr, i32 } %13, 0
  tail call void @__clang_call_terminate(ptr %14) #35
  unreachable

_ZN4absl12lts_202407226StatusD2Ev.exit2:          ; preds = %10, %8, %_ZNSt10unique_ptrIN9grpc_core12_GLOBAL__N_122ServerCallTracerFilterESt14default_deleteIS2_EED2Ev.exit
  ret void
}